target datalayout = "e-m:e-p270:32:32-p271:32:32-p272:64:64-i64:64-i128:128-f80:128-n8:16:32:64-S128"
target triple = "x86_64-pc-linux-gnu"

%struct.H5F_sfile_node_t = type { ptr, ptr }

@H5F_init_g = external global i8, align 1
@H5_libterm_g = external global i8, align 1
@.str = private unnamed_addr constant [102 x i8] c"generated/home/dtcxzyw/WorkSpace/Projects/compilers/llvm-opt-benchmark/bench/hdf5/hdf5/src/H5Fsfile.c\00", align 1
@__func__.H5F__sfile_add = private unnamed_addr constant [15 x i8] c"H5F__sfile_add\00", align 1
@H5E_RESOURCE_g = external global i64, align 8
@H5E_NOSPACE_g = external global i64, align 8
@.str.1 = private unnamed_addr constant [25 x i8] c"memory allocation failed\00", align 1
@H5F_sfile_head_s = internal global ptr null, align 8
@H5_H5F_sfile_node_t_reg_free_list = internal global { i8, [3 x i8], i32, i32, [4 x i8], ptr, i64, ptr } { i8 0, [3 x i8] zeroinitializer, i32 0, i32 0, [4 x i8] zeroinitializer, ptr @.str.3, i64 16, ptr null }, align 8

; Function Attrs: nounwind uwtable
define i32 @H5F__sfile_add(ptr noundef %0) #0 {
  %2 = alloca ptr, align 8
  %3 = alloca ptr, align 8
  %4 = alloca i32, align 4
  %5 = alloca i8, align 1
  store ptr %0, ptr %2, align 8, !tbaa !11
  call void @llvm.lifetime.start.p0(i64 8, ptr %3) #4
  call void @llvm.lifetime.start.p0(i64 4, ptr %4) #4
  store i32 0, ptr %4, align 4, !tbaa !3
  call void @llvm.lifetime.start.p0(i64 1, ptr %5) #4
  store i8 0, ptr %5, align 1, !tbaa !7
  %6 = load i8, ptr @H5F_init_g, align 1, !tbaa !7, !range !9, !noundef !10
  %7 = trunc i8 %6 to i1
  br i1 %7, label %12, label %8

8:                                                ; preds = %1
  %9 = load i8, ptr @H5_libterm_g, align 1, !tbaa !7, !range !9, !noundef !10
  %10 = trunc i8 %9 to i1
  %11 = xor i1 %10, true
  br label %12

12:                                               ; preds = %8, %1
  %13 = phi i1 [ true, %1 ], [ %11, %8 ]
  %14 = xor i1 %13, true
  %15 = xor i1 %14, true
  %16 = zext i1 %15 to i32
  %17 = sext i32 %16 to i64
  %18 = call i64 @llvm.expect.i64(i64 %17, i64 1)
  %19 = icmp ne i64 %18, 0
  br i1 %19, label %20, label %51

20:                                               ; preds = %12
  %21 = call noalias ptr @H5FL_reg_calloc(ptr noundef @H5_H5F_sfile_node_t_reg_free_list)
  store ptr %21, ptr %3, align 8, !tbaa !14
  %22 = icmp eq ptr null, %21
  br i1 %22, label %23, label %42

23:                                               ; preds = %20
  br label %24

24:                                               ; preds = %23
  br label %25

25:                                               ; preds = %24
  br label %26

26:                                               ; preds = %25
  %27 = load i64, ptr @H5E_RESOURCE_g, align 8, !tbaa !16
  %28 = load i64, ptr @H5E_NOSPACE_g, align 8, !tbaa !16
  %29 = call i32 (ptr, ptr, i32, i64, i64, ptr, ...) @H5E_printf_stack(ptr noundef @.str, ptr noundef @__func__.H5F__sfile_add, i32 noundef 105, i64 noundef %27, i64 noundef %28, ptr noundef @.str.1)
  br label %30

30:                                               ; preds = %26
  br label %31

31:                                               ; preds = %30
  store i8 1, ptr %5, align 1, !tbaa !7
  %32 = load i8, ptr %5, align 1, !tbaa !7, !range !9, !noundef !10
  %33 = trunc i8 %32 to i1
  %34 = zext i1 %33 to i8
  store i8 %34, ptr %5, align 1, !tbaa !7
  br label %35

35:                                               ; preds = %31
  br label %36

36:                                               ; preds = %35
  br label %37

37:                                               ; preds = %36
  store i32 -1, ptr %4, align 4, !tbaa !3
  br label %50

38:                                               ; No predecessors!
  br label %39

39:                                               ; preds = %38
  br label %40

40:                                               ; preds = %39
  br label %41

41:                                               ; preds = %40
  br label %42

42:                                               ; preds = %41, %20
  %43 = load ptr, ptr %2, align 8, !tbaa !11
  %44 = load ptr, ptr %3, align 8, !tbaa !14
  %45 = getelementptr inbounds nuw %struct.H5F_sfile_node_t, ptr %44, i32 0, i32 0
  store ptr %43, ptr %45, align 8, !tbaa !18
  %46 = load ptr, ptr @H5F_sfile_head_s, align 8, !tbaa !14
  %47 = load ptr, ptr %3, align 8, !tbaa !14
  %48 = getelementptr inbounds nuw %struct.H5F_sfile_node_t, ptr %47, i32 0, i32 1
  store ptr %46, ptr %48, align 8, !tbaa !20
  %49 = load ptr, ptr %3, align 8, !tbaa !14
  store ptr %49, ptr @H5F_sfile_head_s, align 8, !tbaa !14
  br label %50

50:                                               ; preds = %42, %37
  br label %51

51:                                               ; preds = %50, %12
  %52 = load i32, ptr %4, align 4, !tbaa !3
  call void @llvm.lifetime.end.p0(i64 1, ptr %5) #4
  call void @llvm.lifetime.end.p0(i64 4, ptr %4) #4
  call void @llvm.lifetime.end.p0(i64 8, ptr %3) #4
  ret i32 %52
}