; Function Attrs: nounwind uwtable
define range(i32 -1, 1) i32 @H5F__sfile_add(ptr noundef %0) local_unnamed_addr #1 {
  %2 = load i8, ptr @H5F_init_g, align 1, !tbaa !3, !range !7, !noundef !8
  %3 = trunc nuw i8 %2 to i1
  %4 = load i8, ptr @H5_libterm_g, align 1, !range !7
  %5 = trunc nuw i8 %4 to i1
  %6 = xor i1 %5, true
  %7 = select i1 %3, i1 true, i1 %6
  br i1 %7, label %8, label %18, !prof !9

8:                                                ; preds = %1
  %9 = tail call noalias ptr @H5FL_reg_calloc(ptr noundef nonnull @H5_H5F_sfile_node_t_reg_free_list) #3
  %10 = icmp eq ptr %9, null
  br i1 %10, label %11, label %15

11:                                               ; preds = %8
  %12 = load i64, ptr @H5E_RESOURCE_g, align 8, !tbaa !10
  %13 = load i64, ptr @H5E_NOSPACE_g, align 8, !tbaa !10
  %14 = tail call i32 (ptr, ptr, i32, i64, i64, ptr, ...) @H5E_printf_stack(ptr noundef nonnull @.str, ptr noundef nonnull @__func__.H5F__sfile_add, i32 noundef 105, i64 noundef %12, i64 noundef %13, ptr noundef nonnull @.str.1) #3
  br label %18

15:                                               ; preds = %8
  store ptr %0, ptr %9, align 8, !tbaa !12
  %16 = load ptr, ptr @H5F_sfile_head_s, align 8, !tbaa !17
  %17 = getelementptr inbounds nuw i8, ptr %9, i64 8
  store ptr %16, ptr %17, align 8, !tbaa !18
  store ptr %9, ptr @H5F_sfile_head_s, align 8, !tbaa !17
  br label %18

18:                                               ; preds = %11, %15, %1
  %.0 = phi i32 [ -1, %11 ], [ 0, %15 ], [ 0, %1 ]
  ret i32 %.0
}